target datalayout = "e-m:e-p270:32:32-p271:32:32-p272:64:64-i64:64-i128:128-f80:128-n8:16:32:64-S128"
target triple = "x86_64-pc-linux-gnu"

%struct.SDL_Surface = type { i32, i32, i32, i32, i32, ptr, i32, ptr, i32, i32, ptr, i32, ptr, i32, ptr, i32, %struct.SDL_Rect, %struct.SDL_BlitMap }
%struct.SDL_Rect = type { i32, i32, i32, i32 }
%struct.SDL_BlitMap = type { i32, ptr, ptr, %struct.SDL_BlitInfo, i32, i32 }
%struct.SDL_BlitInfo = type { ptr, ptr, i32, i32, i32, i32, ptr, ptr, i32, i32, i32, i32, ptr, ptr, ptr, ptr, ptr, ptr, i32, i32, i8, i8, i8, i8 }

@SDL_surface_magic = internal global i8 0, align 1
@.str = private unnamed_addr constant [26 x i8] c"Parameter '%s' is invalid\00", align 1
@.str.5 = private unnamed_addr constant [8 x i8] c"surface\00", align 1

; Function Attrs: nounwind uwtable
define hidden zeroext i1 @SDL_SurfaceValid(ptr noundef %0) #0 {
  %2 = alloca ptr, align 8
  store ptr %0, ptr %2, align 8
  %3 = load ptr, ptr %2, align 8
  %4 = icmp ne ptr %3, null
  br i1 %4, label %5, label %10

5:                                                ; preds = %1
  %6 = load ptr, ptr %2, align 8
  %7 = getelementptr inbounds nuw %struct.SDL_Surface, ptr %6, i32 0, i32 7
  %8 = load ptr, ptr %7, align 8
  %9 = icmp eq ptr %8, @SDL_surface_magic
  br label %10

10:                                               ; preds = %5, %1
  %11 = phi i1 [ false, %1 ], [ %9, %5 ]
  ret i1 %11
}

; Function Attrs: nounwind uwtable
define hidden zeroext i1 @SDL_SetSurfaceColorMod_REAL(ptr noundef %0, i8 noundef zeroext %1, i8 noundef zeroext %2, i8 noundef zeroext %3) #0 {
  %5 = alloca i1, align 1
  %6 = alloca ptr, align 8
  %7 = alloca i8, align 1
  %8 = alloca i8, align 1
  %9 = alloca i8, align 1
  %10 = alloca i32, align 4
  %11 = alloca i32, align 4
  store ptr %0, ptr %6, align 8
  store i8 %1, ptr %7, align 1
  store i8 %2, ptr %8, align 1
  store i8 %3, ptr %9, align 1
  call void @llvm.lifetime.start.p0(i64 4, ptr %10) #8
  %12 = load ptr, ptr %6, align 8
  %13 = call zeroext i1 @SDL_SurfaceValid(ptr noundef %12)
  br i1 %13, label %16, label %14

14:                                               ; preds = %4
  %15 = call zeroext i1 (ptr, ...) @SDL_SetError_REAL(ptr noundef @.str, ptr noundef @.str.5)
  store i1 %15, ptr %5, align 1
  store i32 1, ptr %11, align 4
  br label %74

16:                                               ; preds = %4
  %17 = load i8, ptr %7, align 1
  %18 = load ptr, ptr %6, align 8
  %19 = getelementptr inbounds nuw %struct.SDL_Surface, ptr %18, i32 0, i32 17
  %20 = getelementptr inbounds nuw %struct.SDL_BlitMap, ptr %19, i32 0, i32 3
  %21 = getelementptr inbounds nuw %struct.SDL_BlitInfo, ptr %20, i32 0, i32 20
  store i8 %17, ptr %21, align 8
  %22 = load i8, ptr %8, align 1
  %23 = load ptr, ptr %6, align 8
  %24 = getelementptr inbounds nuw %struct.SDL_Surface, ptr %23, i32 0, i32 17
  %25 = getelementptr inbounds nuw %struct.SDL_BlitMap, ptr %24, i32 0, i32 3
  %26 = getelementptr inbounds nuw %struct.SDL_BlitInfo, ptr %25, i32 0, i32 21
  store i8 %22, ptr %26, align 1
  %27 = load i8, ptr %9, align 1
  %28 = load ptr, ptr %6, align 8
  %29 = getelementptr inbounds nuw %struct.SDL_Surface, ptr %28, i32 0, i32 17
  %30 = getelementptr inbounds nuw %struct.SDL_BlitMap, ptr %29, i32 0, i32 3
  %31 = getelementptr inbounds nuw %struct.SDL_BlitInfo, ptr %30, i32 0, i32 22
  store i8 %27, ptr %31, align 2
  %32 = load ptr, ptr %6, align 8
  %33 = getelementptr inbounds nuw %struct.SDL_Surface, ptr %32, i32 0, i32 17
  %34 = getelementptr inbounds nuw %struct.SDL_BlitMap, ptr %33, i32 0, i32 3
  %35 = getelementptr inbounds nuw %struct.SDL_BlitInfo, ptr %34, i32 0, i32 18
  %36 = load i32, ptr %35, align 8
  store i32 %36, ptr %10, align 4
  %37 = load i8, ptr %7, align 1
  %38 = zext i8 %37 to i32
  %39 = icmp ne i32 %38, 255
  br i1 %39, label %48, label %40

40:                                               ; preds = %16
  %41 = load i8, ptr %8, align 1
  %42 = zext i8 %41 to i32
  %43 = icmp ne i32 %42, 255
  br i1 %43, label %48, label %44

44:                                               ; preds = %40
  %45 = load i8, ptr %9, align 1
  %46 = zext i8 %45 to i32
  %47 = icmp ne i32 %46, 255
  br i1 %47, label %48, label %55

48:                                               ; preds = %44, %40, %16
  %49 = load ptr, ptr %6, align 8
  %50 = getelementptr inbounds nuw %struct.SDL_Surface, ptr %49, i32 0, i32 17
  %51 = getelementptr inbounds nuw %struct.SDL_BlitMap, ptr %50, i32 0, i32 3
  %52 = getelementptr inbounds nuw %struct.SDL_BlitInfo, ptr %51, i32 0, i32 18
  %53 = load i32, ptr %52, align 8
  %54 = or i32 %53, 1
  store i32 %54, ptr %52, align 8
  br label %62

55:                                               ; preds = %44
  %56 = load ptr, ptr %6, align 8
  %57 = getelementptr inbounds nuw %struct.SDL_Surface, ptr %56, i32 0, i32 17
  %58 = getelementptr inbounds nuw %struct.SDL_BlitMap, ptr %57, i32 0, i32 3
  %59 = getelementptr inbounds nuw %struct.SDL_BlitInfo, ptr %58, i32 0, i32 18
  %60 = load i32, ptr %59, align 8
  %61 = and i32 %60, -2
  store i32 %61, ptr %59, align 8
  br label %62

62:                                               ; preds = %55, %48
  %63 = load ptr, ptr %6, align 8
  %64 = getelementptr inbounds nuw %struct.SDL_Surface, ptr %63, i32 0, i32 17
  %65 = getelementptr inbounds nuw %struct.SDL_BlitMap, ptr %64, i32 0, i32 3
  %66 = getelementptr inbounds nuw %struct.SDL_BlitInfo, ptr %65, i32 0, i32 18
  %67 = load i32, ptr %66, align 8
  %68 = load i32, ptr %10, align 4
  %69 = icmp ne i32 %67, %68
  br i1 %69, label %70, label %73

70:                                               ; preds = %62
  %71 = load ptr, ptr %6, align 8
  %72 = getelementptr inbounds nuw %struct.SDL_Surface, ptr %71, i32 0, i32 17
  call void @SDL_InvalidateMap(ptr noundef %72)
  br label %73

73:                                               ; preds = %70, %62
  store i1 true, ptr %5, align 1
  store i32 1, ptr %11, align 4
  br label %74

74:                                               ; preds = %73, %14
  call void @llvm.lifetime.end.p0(i64 4, ptr %10) #8
  %75 = load i1, ptr %5, align 1
  ret i1 %75
}