; Function Attrs: nounwind uwtable
define hidden zeroext i1 @SDL_SetSurfaceColorMod_REAL(ptr noundef %0, i8 noundef zeroext %1, i8 noundef zeroext %2, i8 noundef zeroext %3) local_unnamed_addr #2 {
  %.not.i = icmp eq ptr %0, null
  br i1 %.not.i, label %SDL_SurfaceValid.exit.thread, label %SDL_SurfaceValid.exit

SDL_SurfaceValid.exit:                            ; preds = %4
  %5 = getelementptr inbounds nuw i8, ptr %0, i64 40
  %6 = load ptr, ptr %5, align 8
  %7 = icmp eq ptr %6, @SDL_surface_magic
  br i1 %7, label %9, label %SDL_SurfaceValid.exit.thread

SDL_SurfaceValid.exit.thread:                     ; preds = %4, %SDL_SurfaceValid.exit
  %8 = tail call zeroext i1 (ptr, ...) @SDL_SetError_REAL(ptr noundef nonnull @.str, ptr noundef nonnull @.str.5) #10
  br label %20

9:                                                ; preds = %SDL_SurfaceValid.exit
  %10 = getelementptr inbounds nuw i8, ptr %0, i64 264
  store i8 %1, ptr %10, align 8
  %11 = getelementptr inbounds nuw i8, ptr %0, i64 265
  store i8 %2, ptr %11, align 1
  %12 = getelementptr inbounds nuw i8, ptr %0, i64 266
  store i8 %3, ptr %12, align 2
  %13 = getelementptr inbounds nuw i8, ptr %0, i64 256
  %14 = load i32, ptr %13, align 8
  %15 = and i8 %2, %1
  %16 = and i8 %15, %3
  %or.cond5.not = icmp ne i8 %16, -1
  %17 = and i32 %14, -2
  %masksel = zext i1 %or.cond5.not to i32
  %storemerge = or disjoint i32 %17, %masksel
  store i32 %storemerge, ptr %13, align 8
  %.not = icmp eq i32 %storemerge, %14
  br i1 %.not, label %20, label %18

18:                                               ; preds = %9
  %19 = getelementptr inbounds nuw i8, ptr %0, i64 120
  tail call void @SDL_InvalidateMap(ptr noundef nonnull %19) #10
  br label %20

20:                                               ; preds = %9, %18, %SDL_SurfaceValid.exit.thread
  %.0 = phi i1 [ %8, %SDL_SurfaceValid.exit.thread ], [ true, %18 ], [ true, %9 ]
  ret i1 %.0
}